; Function Attrs: mustprogress uwtable
define void @_ZN32pxrInternal_v0_24__pxrReserved__25UsdUtilsFlattenLayerStackERKNS_9TfWeakPtrINS_8UsdStageEEERKNSt7__cxx1112basic_stringIcSt11char_traitsIcESaIcEEE(ptr dead_on_unwind noalias writable sret(%"class.pxrInternal_v0_24__pxrReserved__::TfRefPtr") align 8 %0, ptr nocapture noundef nonnull readonly align 8 dereferenceable(16) %1, ptr noundef nonnull align 8 dereferenceable(32) %2) local_unnamed_addr #0 personality ptr @__gxx_personality_v0 {
  %4 = alloca %"class.std::function", align 8
  %5 = getelementptr inbounds nuw i8, ptr %4, i64 16
  %6 = getelementptr inbounds nuw i8, ptr %4, i64 24
  %7 = getelementptr inbounds i8, ptr %4, i64 8
  store i64 0, ptr %7, align 8
  store ptr @_ZN32pxrInternal_v0_24__pxrReserved__41UsdUtilsFlattenLayerStackResolveAssetPathERKNS_9TfWeakPtrINS_8SdfLayerEEERKNSt7__cxx1112basic_stringIcSt11char_traitsIcESaIcEEE, ptr %4, align 8
  store ptr @_ZNSt17_Function_handlerIFNSt7__cxx1112basic_stringIcSt11char_traitsIcESaIcEEERKN32pxrInternal_v0_24__pxrReserved__9TfWeakPtrINS6_8SdfLayerEEERKS5_EPSE_E9_M_invokeERKSt9_Any_dataSB_SD_, ptr %6, align 8
  store ptr @_ZNSt17_Function_handlerIFNSt7__cxx1112basic_stringIcSt11char_traitsIcESaIcEEERKN32pxrInternal_v0_24__pxrReserved__9TfWeakPtrINS6_8SdfLayerEEERKS5_EPSE_E10_M_managerERSt9_Any_dataRKSH_St18_Manager_operation, ptr %5, align 8
  invoke void @_ZN32pxrInternal_v0_24__pxrReserved__25UsdUtilsFlattenLayerStackERKNS_9TfWeakPtrINS_8UsdStageEEERKSt8functionIFNSt7__cxx1112basic_stringIcSt11char_traitsIcESaIcEEERKNS0_INS_8SdfLayerEEERKSB_EESH_(ptr dead_on_unwind writable sret(%"class.pxrInternal_v0_24__pxrReserved__::TfRefPtr") align 8 %0, ptr noundef nonnull align 8 dereferenceable(16) %1, ptr noundef nonnull align 8 dereferenceable(32) %4, ptr noundef nonnull align 8 dereferenceable(32) %2)
          to label %8 unwind label %15

8:                                                ; preds = %3
  %9 = load ptr, ptr %5, align 8
  %.not.i.i = icmp eq ptr %9, null
  br i1 %.not.i.i, label %_ZNSt8functionIFNSt7__cxx1112basic_stringIcSt11char_traitsIcESaIcEEERKN32pxrInternal_v0_24__pxrReserved__9TfWeakPtrINS6_8SdfLayerEEERKS5_EED2Ev.exit, label %10

10:                                               ; preds = %8
  %11 = invoke noundef zeroext i1 %9(ptr noundef nonnull align 8 dereferenceable(16) %4, ptr noundef nonnull align 8 dereferenceable(16) %4, i32 noundef 3)
          to label %_ZNSt8functionIFNSt7__cxx1112basic_stringIcSt11char_traitsIcESaIcEEERKN32pxrInternal_v0_24__pxrReserved__9TfWeakPtrINS6_8SdfLayerEEERKS5_EED2Ev.exit unwind label %12

12:                                               ; preds = %10
  %13 = landingpad { ptr, i32 }
          catch ptr null
  %14 = extractvalue { ptr, i32 } %13, 0
  call void @__clang_call_terminate(ptr %14) #9
  unreachable

_ZNSt8functionIFNSt7__cxx1112basic_stringIcSt11char_traitsIcESaIcEEERKN32pxrInternal_v0_24__pxrReserved__9TfWeakPtrINS6_8SdfLayerEEERKS5_EED2Ev.exit: ; preds = %8, %10
  ret void

15:                                               ; preds = %3
  %16 = landingpad { ptr, i32 }
          cleanup
  %17 = load ptr, ptr %5, align 8
  %.not.i.i3 = icmp eq ptr %17, null
  br i1 %.not.i.i3, label %_ZNSt8functionIFNSt7__cxx1112basic_stringIcSt11char_traitsIcESaIcEEERKN32pxrInternal_v0_24__pxrReserved__9TfWeakPtrINS6_8SdfLayerEEERKS5_EED2Ev.exit4, label %18

18:                                               ; preds = %15
  %19 = invoke noundef zeroext i1 %17(ptr noundef nonnull align 8 dereferenceable(16) %4, ptr noundef nonnull align 8 dereferenceable(16) %4, i32 noundef 3)
          to label %_ZNSt8functionIFNSt7__cxx1112basic_stringIcSt11char_traitsIcESaIcEEERKN32pxrInternal_v0_24__pxrReserved__9TfWeakPtrINS6_8SdfLayerEEERKS5_EED2Ev.exit4 unwind label %20

20:                                               ; preds = %18
  %21 = landingpad { ptr, i32 }
          catch ptr null
  %22 = extractvalue { ptr, i32 } %21, 0
  call void @__clang_call_terminate(ptr %22) #9
  unreachable

_ZNSt8functionIFNSt7__cxx1112basic_stringIcSt11char_traitsIcESaIcEEERKN32pxrInternal_v0_24__pxrReserved__9TfWeakPtrINS6_8SdfLayerEEERKS5_EED2Ev.exit4: ; preds = %15, %18
  resume { ptr, i32 } %16
}